target datalayout = "e-m:e-p270:32:32-p271:32:32-p272:64:64-i64:64-i128:128-f80:128-n8:16:32:64-S128"
target triple = "x86_64-pc-linux-gnu"

%class.ReservedSpace = type <{ ptr, i64, i64, i64, i64, i8, [3 x i8], i32, i8, [7 x i8] }>
%class.Klass = type <{ %class.Metadata, i32, i32, i32, i32, ptr, ptr, ptr, [8 x ptr], %class.OopHandle, ptr, ptr, ptr, ptr, ptr, i32, %class.AccessFlags, i64, i64, i8, i8, i16, i16, [2 x i8], i32, [4 x i8] }>
%class.Metadata = type { ptr }
%class.OopHandle = type { ptr }
%class.AccessFlags = type { i32 }
%class.ResourceHashtableNode = type { i32, ptr, %class.DumpTimeClassInfo, ptr }
%class.DumpTimeClassInfo = type { i8, i8, i8, ptr, ptr, i8, i8, i32, i32, i32, ptr, ptr, ptr, ptr }
%class.FixedResourceHashtableStorage = type { [15889 x ptr] }

@_ZN22SystemDictionaryShared15_dumptime_tableE = hidden global ptr null, align 8
@_ZN9CDSConfig26_is_dumping_static_archiveE = external global i8, align 1
@_ZN15MetaspaceShared10_symbol_rsE = external global %class.ReservedSpace, align 8

; Function Attrs: mustprogress nounwind uwtable
define linkonce_odr hidden noundef ptr @_ZNK29FixedResourceHashtableStorageILj15889EP13InstanceKlass17DumpTimeClassInfoE5tableEv(ptr noundef nonnull align 8 dereferenceable(127112) %0) #1 comdat align 2 {
  %2 = alloca ptr, align 8
  store ptr %0, ptr %2, align 8
  %3 = load ptr, ptr %2, align 8
  %4 = getelementptr inbounds %class.FixedResourceHashtableStorage, ptr %3, i32 0, i32 0
  %5 = getelementptr inbounds [15889 x ptr], ptr %4, i64 0, i64 0
  ret ptr %5
}

; Function Attrs: mustprogress nounwind uwtable
define linkonce_odr hidden noundef ptr @_ZNK21ResourceHashtableBaseI29FixedResourceHashtableStorageILj15889EP13InstanceKlass17DumpTimeClassInfoES2_S3_LN6AnyObj15allocation_typeE2EL8MEMFLAGS13EXadL_Z29DumpTimeSharedClassTable_hashIS1_EjRKPT_EEXadL_Z16primitive_equalsIS2_EbRKS9_SF_EEE5tableEv(ptr noundef nonnull align 8 dereferenceable(127116) %0) #1 comdat align 2 {
  %2 = alloca ptr, align 8
  store ptr %0, ptr %2, align 8
  %3 = load ptr, ptr %2, align 8
  %4 = call noundef ptr @_ZNK29FixedResourceHashtableStorageILj15889EP13InstanceKlass17DumpTimeClassInfoE5tableEv(ptr noundef nonnull align 8 dereferenceable(127112) %3)
  ret ptr %4
}

; Function Attrs: mustprogress nounwind uwtable
define linkonce_odr hidden noundef i32 @_ZNK29FixedResourceHashtableStorageILj15889EP13InstanceKlass17DumpTimeClassInfoE10table_sizeEv(ptr noundef nonnull align 8 dereferenceable(127112) %0) #1 comdat align 2 {
  %2 = alloca ptr, align 8
  store ptr %0, ptr %2, align 8
  ret i32 15889
}

; Function Attrs: mustprogress nounwind uwtable
define linkonce_odr hidden noundef zeroext i1 @_Z16primitive_equalsIP13InstanceKlassEbRKT_S4_(ptr noundef nonnull align 8 dereferenceable(8) %0, ptr noundef nonnull align 8 dereferenceable(8) %1) #1 comdat {
  %3 = alloca ptr, align 8
  %4 = alloca ptr, align 8
  store ptr %0, ptr %3, align 8
  store ptr %1, ptr %4, align 8
  %5 = load ptr, ptr %3, align 8
  %6 = load ptr, ptr %5, align 8
  %7 = load ptr, ptr %4, align 8
  %8 = load ptr, ptr %7, align 8
  %9 = icmp eq ptr %6, %8
  ret i1 %9
}

; Function Attrs: mustprogress nounwind uwtable
define linkonce_odr hidden noundef ptr @_ZN21ResourceHashtableBaseI29FixedResourceHashtableStorageILj15889EP13InstanceKlass17DumpTimeClassInfoES2_S3_LN6AnyObj15allocation_typeE2EL8MEMFLAGS13EXadL_Z29DumpTimeSharedClassTable_hashIS1_EjRKPT_EEXadL_Z16primitive_equalsIS2_EbRKS9_SF_EEE9bucket_atEj(ptr noundef nonnull align 8 dereferenceable(127116) %0, i32 noundef %1) #1 comdat align 2 {
  %3 = alloca ptr, align 8
  %4 = alloca i32, align 4
  %5 = alloca ptr, align 8
  store ptr %0, ptr %3, align 8
  store i32 %1, ptr %4, align 4
  %6 = load ptr, ptr %3, align 8
  %7 = call noundef ptr @_ZNK21ResourceHashtableBaseI29FixedResourceHashtableStorageILj15889EP13InstanceKlass17DumpTimeClassInfoES2_S3_LN6AnyObj15allocation_typeE2EL8MEMFLAGS13EXadL_Z29DumpTimeSharedClassTable_hashIS1_EjRKPT_EEXadL_Z16primitive_equalsIS2_EbRKS9_SF_EEE5tableEv(ptr noundef nonnull align 8 dereferenceable(127116) %6)
  store ptr %7, ptr %5, align 8
  %8 = load ptr, ptr %5, align 8
  %9 = load i32, ptr %4, align 4
  %10 = zext i32 %9 to i64
  %11 = getelementptr inbounds ptr, ptr %8, i64 %10
  ret ptr %11
}

; Function Attrs: mustprogress nounwind uwtable
define linkonce_odr hidden noundef i32 @_ZNK21ResourceHashtableBaseI29FixedResourceHashtableStorageILj15889EP13InstanceKlass17DumpTimeClassInfoES2_S3_LN6AnyObj15allocation_typeE2EL8MEMFLAGS13EXadL_Z29DumpTimeSharedClassTable_hashIS1_EjRKPT_EEXadL_Z16primitive_equalsIS2_EbRKS9_SF_EEE10table_sizeEv(ptr noundef nonnull align 8 dereferenceable(127116) %0) #1 comdat align 2 {
  %2 = alloca ptr, align 8
  store ptr %0, ptr %2, align 8
  %3 = load ptr, ptr %2, align 8
  %4 = call noundef i32 @_ZNK29FixedResourceHashtableStorageILj15889EP13InstanceKlass17DumpTimeClassInfoE10table_sizeEv(ptr noundef nonnull align 8 dereferenceable(127112) %3)
  ret i32 %4
}

; Function Attrs: mustprogress nounwind uwtable
define linkonce_odr hidden noundef ptr @_ZNK13ReservedSpace4baseEv(ptr noundef nonnull align 8 dereferenceable(49) %0) #1 comdat align 2 {
  %2 = alloca ptr, align 8
  store ptr %0, ptr %2, align 8
  %3 = load ptr, ptr %2, align 8
  %4 = getelementptr inbounds %class.ReservedSpace, ptr %3, i32 0, i32 0
  %5 = load ptr, ptr %4, align 8
  ret ptr %5
}

; Function Attrs: mustprogress nounwind uwtable
define linkonce_odr hidden noundef ptr @_ZN21ResourceHashtableBaseI29FixedResourceHashtableStorageILj15889EP13InstanceKlass17DumpTimeClassInfoES2_S3_LN6AnyObj15allocation_typeE2EL8MEMFLAGS13EXadL_Z29DumpTimeSharedClassTable_hashIS1_EjRKPT_EEXadL_Z16primitive_equalsIS2_EbRKS9_SF_EEE11lookup_nodeEjRKS2_(ptr noundef nonnull align 8 dereferenceable(127116) %0, i32 noundef %1, ptr noundef nonnull align 8 dereferenceable(8) %2) #1 comdat align 2 {
  %4 = alloca ptr, align 8
  %5 = alloca i32, align 4
  %6 = alloca ptr, align 8
  %7 = alloca i32, align 4
  %8 = alloca ptr, align 8
  %9 = alloca ptr, align 8
  store ptr %0, ptr %4, align 8
  store i32 %1, ptr %5, align 4
  store ptr %2, ptr %6, align 8
  %10 = load ptr, ptr %4, align 8
  %11 = load i32, ptr %5, align 4
  %12 = call noundef i32 @_ZNK21ResourceHashtableBaseI29FixedResourceHashtableStorageILj15889EP13InstanceKlass17DumpTimeClassInfoES2_S3_LN6AnyObj15allocation_typeE2EL8MEMFLAGS13EXadL_Z29DumpTimeSharedClassTable_hashIS1_EjRKPT_EEXadL_Z16primitive_equalsIS2_EbRKS9_SF_EEE10table_sizeEv(ptr noundef nonnull align 8 dereferenceable(127116) %10)
  %13 = urem i32 %11, %12
  store i32 %13, ptr %7, align 4
  %14 = load i32, ptr %7, align 4
  %15 = call noundef ptr @_ZN21ResourceHashtableBaseI29FixedResourceHashtableStorageILj15889EP13InstanceKlass17DumpTimeClassInfoES2_S3_LN6AnyObj15allocation_typeE2EL8MEMFLAGS13EXadL_Z29DumpTimeSharedClassTable_hashIS1_EjRKPT_EEXadL_Z16primitive_equalsIS2_EbRKS9_SF_EEE9bucket_atEj(ptr noundef nonnull align 8 dereferenceable(127116) %10, i32 noundef %14)
  store ptr %15, ptr %8, align 8
  br label %16

16:                                               ; preds = %34, %3
  %17 = load ptr, ptr %8, align 8
  %18 = load ptr, ptr %17, align 8
  %19 = icmp ne ptr %18, null
  br i1 %19, label %20, label %37

20:                                               ; preds = %16
  %21 = load ptr, ptr %8, align 8
  %22 = load ptr, ptr %21, align 8
  store ptr %22, ptr %9, align 8
  %23 = load ptr, ptr %9, align 8
  %24 = getelementptr inbounds %class.ResourceHashtableNode, ptr %23, i32 0, i32 0
  %25 = load i32, ptr %24, align 8
  %26 = load i32, ptr %5, align 4
  %27 = icmp eq i32 %25, %26
  br i1 %27, label %28, label %34

28:                                               ; preds = %20
  %29 = load ptr, ptr %6, align 8
  %30 = load ptr, ptr %9, align 8
  %31 = getelementptr inbounds %class.ResourceHashtableNode, ptr %30, i32 0, i32 1
  %32 = call noundef zeroext i1 @_Z16primitive_equalsIP13InstanceKlassEbRKT_S4_(ptr noundef nonnull align 8 dereferenceable(8) %29, ptr noundef nonnull align 8 dereferenceable(8) %31)
  br i1 %32, label %33, label %34

33:                                               ; preds = %28
  br label %37

34:                                               ; preds = %28, %20
  %35 = load ptr, ptr %9, align 8
  %36 = getelementptr inbounds %class.ResourceHashtableNode, ptr %35, i32 0, i32 3
  store ptr %36, ptr %8, align 8
  br label %16, !llvm.loop !35

37:                                               ; preds = %33, %16
  %38 = load ptr, ptr %8, align 8
  ret ptr %38
}

; Function Attrs: mustprogress nounwind uwtable
define linkonce_odr hidden noundef i32 @_Z14primitive_hashIP13InstanceKlassEjRKT_(ptr noundef nonnull align 8 dereferenceable(8) %0) #1 comdat {
  %2 = alloca ptr, align 8
  %3 = alloca i32, align 4
  store ptr %0, ptr %2, align 8
  %4 = load ptr, ptr %2, align 8
  %5 = load ptr, ptr %4, align 8
  %6 = ptrtoint ptr %5 to i64
  %7 = trunc i64 %6 to i32
  store i32 %7, ptr %3, align 4
  %8 = load i32, ptr %3, align 4
  %9 = load i32, ptr %3, align 4
  %10 = lshr i32 %9, 3
  %11 = xor i32 %8, %10
  ret i32 %11
}

; Function Attrs: mustprogress nounwind uwtable
define linkonce_odr hidden noundef i32 @_Z14primitive_hashImEjRKT_(ptr noundef nonnull align 8 dereferenceable(8) %0) #1 comdat {
  %2 = alloca ptr, align 8
  %3 = alloca i32, align 4
  store ptr %0, ptr %2, align 8
  %4 = load ptr, ptr %2, align 8
  %5 = load i64, ptr %4, align 8
  %6 = trunc i64 %5 to i32
  store i32 %6, ptr %3, align 4
  %7 = load i32, ptr %3, align 4
  %8 = load i32, ptr %3, align 4
  %9 = lshr i32 %8, 3
  %10 = xor i32 %7, %9
  ret i32 %10
}

; Function Attrs: mustprogress nounwind uwtable
define linkonce_odr hidden noundef ptr @_ZN15MetaspaceShared14symbol_rs_baseEv() #1 comdat align 2 {
  %1 = call noundef ptr @_ZNK13ReservedSpace4baseEv(ptr noundef nonnull align 8 dereferenceable(49) @_ZN15MetaspaceShared10_symbol_rsE)
  ret ptr %1
}

; Function Attrs: mustprogress nounwind uwtable
define linkonce_odr hidden noundef ptr @_ZNK5Klass4nameEv(ptr noundef nonnull align 8 dereferenceable(196) %0) #1 comdat align 2 {
  %2 = alloca ptr, align 8
  store ptr %0, ptr %2, align 8
  %3 = load ptr, ptr %2, align 8
  %4 = getelementptr inbounds %class.Klass, ptr %3, i32 0, i32 5
  %5 = load ptr, ptr %4, align 8
  ret ptr %5
}

; Function Attrs: mustprogress nounwind uwtable
define linkonce_odr hidden noundef zeroext i1 @_ZN9CDSConfig25is_dumping_static_archiveEv() #1 comdat align 2 {
  %1 = load i8, ptr @_ZN9CDSConfig26_is_dumping_static_archiveE, align 1
  %2 = trunc i8 %1 to i1
  ret i1 %2
}

; Function Attrs: mustprogress nounwind uwtable
define linkonce_odr hidden noundef ptr @_ZNK21ResourceHashtableBaseI29FixedResourceHashtableStorageILj15889EP13InstanceKlass17DumpTimeClassInfoES2_S3_LN6AnyObj15allocation_typeE2EL8MEMFLAGS13EXadL_Z29DumpTimeSharedClassTable_hashIS1_EjRKPT_EEXadL_Z16primitive_equalsIS2_EbRKS9_SF_EEE11lookup_nodeEjRKS2_(ptr noundef nonnull align 8 dereferenceable(127116) %0, i32 noundef %1, ptr noundef nonnull align 8 dereferenceable(8) %2) #1 comdat align 2 {
  %4 = alloca ptr, align 8
  %5 = alloca i32, align 4
  %6 = alloca ptr, align 8
  store ptr %0, ptr %4, align 8
  store i32 %1, ptr %5, align 4
  store ptr %2, ptr %6, align 8
  %7 = load ptr, ptr %4, align 8
  %8 = load i32, ptr %5, align 4
  %9 = load ptr, ptr %6, align 8
  %10 = call noundef ptr @_ZN21ResourceHashtableBaseI29FixedResourceHashtableStorageILj15889EP13InstanceKlass17DumpTimeClassInfoES2_S3_LN6AnyObj15allocation_typeE2EL8MEMFLAGS13EXadL_Z29DumpTimeSharedClassTable_hashIS1_EjRKPT_EEXadL_Z16primitive_equalsIS2_EbRKS9_SF_EEE11lookup_nodeEjRKS2_(ptr noundef nonnull align 8 dereferenceable(127116) %7, i32 noundef %8, ptr noundef nonnull align 8 dereferenceable(8) %9)
  ret ptr %10
}

; Function Attrs: mustprogress nounwind uwtable
define linkonce_odr hidden noundef i32 @_Z29DumpTimeSharedClassTable_hashI13InstanceKlassEjRKPT_(ptr noundef nonnull align 8 dereferenceable(8) %0) #1 comdat {
  %2 = alloca i32, align 4
  %3 = alloca ptr, align 8
  %4 = alloca i64, align 8
  store ptr %0, ptr %3, align 8
  %5 = call noundef zeroext i1 @_ZN9CDSConfig25is_dumping_static_archiveEv()
  br i1 %5, label %6, label %16

6:                                                ; preds = %1
  %7 = load ptr, ptr %3, align 8
  %8 = load ptr, ptr %7, align 8
  %9 = call noundef ptr @_ZNK5Klass4nameEv(ptr noundef nonnull align 8 dereferenceable(196) %8)
  %10 = call noundef ptr @_ZN15MetaspaceShared14symbol_rs_baseEv()
  %11 = ptrtoint ptr %9 to i64
  %12 = ptrtoint ptr %10 to i64
  %13 = sub i64 %11, %12
  %14 = sdiv exact i64 %13, 8
  store i64 %14, ptr %4, align 8
  %15 = call noundef i32 @_Z14primitive_hashImEjRKT_(ptr noundef nonnull align 8 dereferenceable(8) %4)
  store i32 %15, ptr %2, align 4
  br label %19

16:                                               ; preds = %1
  %17 = load ptr, ptr %3, align 8
  %18 = call noundef i32 @_Z14primitive_hashIP13InstanceKlassEjRKT_(ptr noundef nonnull align 8 dereferenceable(8) %17)
  store i32 %18, ptr %2, align 4
  br label %19

19:                                               ; preds = %16, %6
  %20 = load i32, ptr %2, align 4
  ret i32 %20
}

; Function Attrs: mustprogress nounwind uwtable
define linkonce_odr hidden void @_ZN17DumpTimeClassInfo12set_excludedEv(ptr noundef nonnull align 8 dereferenceable(72) %0) #1 comdat align 2 {
  %2 = alloca ptr, align 8
  store ptr %0, ptr %2, align 8
  %3 = load ptr, ptr %2, align 8
  %4 = getelementptr inbounds %class.DumpTimeClassInfo, ptr %3, i32 0, i32 0
  store i8 1, ptr %4, align 8
  ret void
}

; Function Attrs: mustprogress nounwind uwtable
define linkonce_odr hidden noundef ptr @_ZNK21ResourceHashtableBaseI29FixedResourceHashtableStorageILj15889EP13InstanceKlass17DumpTimeClassInfoES2_S3_LN6AnyObj15allocation_typeE2EL8MEMFLAGS13EXadL_Z29DumpTimeSharedClassTable_hashIS1_EjRKPT_EEXadL_Z16primitive_equalsIS2_EbRKS9_SF_EEE3getERKS2_(ptr noundef nonnull align 8 dereferenceable(127116) %0, ptr noundef nonnull align 8 dereferenceable(8) %1) #1 comdat align 2 {
  %3 = alloca ptr, align 8
  %4 = alloca ptr, align 8
  %5 = alloca ptr, align 8
  %6 = alloca i32, align 4
  %7 = alloca ptr, align 8
  store ptr %0, ptr %4, align 8
  store ptr %1, ptr %5, align 8
  %8 = load ptr, ptr %4, align 8
  %9 = load ptr, ptr %5, align 8
  %10 = call noundef i32 @_Z29DumpTimeSharedClassTable_hashI13InstanceKlassEjRKPT_(ptr noundef nonnull align 8 dereferenceable(8) %9)
  store i32 %10, ptr %6, align 4
  %11 = load i32, ptr %6, align 4
  %12 = load ptr, ptr %5, align 8
  %13 = call noundef ptr @_ZNK21ResourceHashtableBaseI29FixedResourceHashtableStorageILj15889EP13InstanceKlass17DumpTimeClassInfoES2_S3_LN6AnyObj15allocation_typeE2EL8MEMFLAGS13EXadL_Z29DumpTimeSharedClassTable_hashIS1_EjRKPT_EEXadL_Z16primitive_equalsIS2_EbRKS9_SF_EEE11lookup_nodeEjRKS2_(ptr noundef nonnull align 8 dereferenceable(127116) %8, i32 noundef %11, ptr noundef nonnull align 8 dereferenceable(8) %12)
  store ptr %13, ptr %7, align 8
  %14 = load ptr, ptr %7, align 8
  %15 = load ptr, ptr %14, align 8
  %16 = icmp ne ptr %15, null
  br i1 %16, label %17, label %21

17:                                               ; preds = %2
  %18 = load ptr, ptr %7, align 8
  %19 = load ptr, ptr %18, align 8
  %20 = getelementptr inbounds %class.ResourceHashtableNode, ptr %19, i32 0, i32 2
  store ptr %20, ptr %3, align 8
  br label %22

21:                                               ; preds = %2
  store ptr null, ptr %3, align 8
  br label %22

22:                                               ; preds = %21, %17
  %23 = load ptr, ptr %3, align 8
  ret ptr %23
}

; Function Attrs: mustprogress nounwind uwtable
define hidden void @_ZN22SystemDictionaryShared35reset_registered_lambda_proxy_classEP13InstanceKlass(ptr noundef %0) #1 align 2 {
  %2 = alloca ptr, align 8
  %3 = alloca ptr, align 8
  store ptr %0, ptr %2, align 8
  %4 = load ptr, ptr @_ZN22SystemDictionaryShared15_dumptime_tableE, align 8
  %5 = call noundef ptr @_ZNK21ResourceHashtableBaseI29FixedResourceHashtableStorageILj15889EP13InstanceKlass17DumpTimeClassInfoES2_S3_LN6AnyObj15allocation_typeE2EL8MEMFLAGS13EXadL_Z29DumpTimeSharedClassTable_hashIS1_EjRKPT_EEXadL_Z16primitive_equalsIS2_EbRKS9_SF_EEE3getERKS2_(ptr noundef nonnull align 8 dereferenceable(127116) %4, ptr noundef nonnull align 8 dereferenceable(8) %2)
  store ptr %5, ptr %3, align 8
  %6 = load ptr, ptr %3, align 8
  %7 = icmp ne ptr %6, null
  br i1 %7, label %8, label %12

8:                                                ; preds = %1
  %9 = load ptr, ptr %3, align 8
  %10 = getelementptr inbounds %class.DumpTimeClassInfo, ptr %9, i32 0, i32 6
  store i8 0, ptr %10, align 1
  %11 = load ptr, ptr %3, align 8
  call void @_ZN17DumpTimeClassInfo12set_excludedEv(ptr noundef nonnull align 8 dereferenceable(72) %11)
  br label %12

12:                                               ; preds = %8, %1
  ret void
}