; Function Attrs: mustprogress nofree norecurse nosync nounwind memory(readwrite, inaccessiblemem: none) uwtable
define hidden void @_ZN22SystemDictionaryShared35reset_registered_lambda_proxy_classEP13InstanceKlass(ptr noundef %0) local_unnamed_addr #4 align 2 {
  %2 = load ptr, ptr @_ZN22SystemDictionaryShared15_dumptime_tableE, align 8
  %3 = load i8, ptr @_ZN9CDSConfig26_is_dumping_static_archiveE, align 1
  %4 = trunc i8 %3 to i1
  br i1 %4, label %5, label %13

5:                                                ; preds = %1
  %6 = getelementptr inbounds i8, ptr %0, i64 24
  %7 = load ptr, ptr %6, align 8
  %8 = load ptr, ptr @_ZN15MetaspaceShared10_symbol_rsE, align 8
  %9 = ptrtoint ptr %7 to i64
  %10 = ptrtoint ptr %8 to i64
  %11 = sub i64 %9, %10
  %12 = lshr exact i64 %11, 3
  br label %_Z29DumpTimeSharedClassTable_hashI13InstanceKlassEjRKPT_.exit.i

13:                                               ; preds = %1
  %14 = ptrtoint ptr %0 to i64
  br label %_Z29DumpTimeSharedClassTable_hashI13InstanceKlassEjRKPT_.exit.i

_Z29DumpTimeSharedClassTable_hashI13InstanceKlassEjRKPT_.exit.i: ; preds = %13, %5
  %.sink.i.i = phi i64 [ %14, %13 ], [ %12, %5 ]
  %15 = trunc i64 %.sink.i.i to i32
  %16 = lshr i32 %15, 3
  %17 = xor i32 %16, %15
  %18 = urem i32 %17, 15889
  %19 = zext nneg i32 %18 to i64
  %20 = getelementptr inbounds ptr, ptr %2, i64 %19
  %21 = load ptr, ptr %20, align 8
  %.not11.i.i.i = icmp eq ptr %21, null
  br i1 %.not11.i.i.i, label %_ZNK21ResourceHashtableBaseI29FixedResourceHashtableStorageILj15889EP13InstanceKlass17DumpTimeClassInfoES2_S3_LN6AnyObj15allocation_typeE2EL8MEMFLAGS13EXadL_Z29DumpTimeSharedClassTable_hashIS1_EjRKPT_EEXadL_Z16primitive_equalsIS2_EbRKS9_SF_EEE3getERKS2_.exit.thread, label %.lr.ph.i.i.i

.lr.ph.i.i.i:                                     ; preds = %_Z29DumpTimeSharedClassTable_hashI13InstanceKlassEjRKPT_.exit.i, %29
  %22 = phi ptr [ %31, %29 ], [ %21, %_Z29DumpTimeSharedClassTable_hashI13InstanceKlassEjRKPT_.exit.i ]
  %23 = load i32, ptr %22, align 8
  %24 = icmp eq i32 %23, %17
  br i1 %24, label %25, label %29

25:                                               ; preds = %.lr.ph.i.i.i
  %26 = getelementptr inbounds i8, ptr %22, i64 8
  %27 = load ptr, ptr %26, align 8
  %28 = icmp eq ptr %27, %0
  br i1 %28, label %32, label %29

29:                                               ; preds = %25, %.lr.ph.i.i.i
  %30 = getelementptr inbounds i8, ptr %22, i64 88
  %31 = load ptr, ptr %30, align 8
  %.not.i.i.i = icmp eq ptr %31, null
  br i1 %.not.i.i.i, label %_ZNK21ResourceHashtableBaseI29FixedResourceHashtableStorageILj15889EP13InstanceKlass17DumpTimeClassInfoES2_S3_LN6AnyObj15allocation_typeE2EL8MEMFLAGS13EXadL_Z29DumpTimeSharedClassTable_hashIS1_EjRKPT_EEXadL_Z16primitive_equalsIS2_EbRKS9_SF_EEE3getERKS2_.exit.thread, label %.lr.ph.i.i.i, !llvm.loop !8

32:                                               ; preds = %25
  %33 = getelementptr inbounds i8, ptr %22, i64 16
  %34 = getelementptr inbounds i8, ptr %22, i64 41
  store i8 0, ptr %34, align 1
  store i8 1, ptr %33, align 8
  br label %_ZNK21ResourceHashtableBaseI29FixedResourceHashtableStorageILj15889EP13InstanceKlass17DumpTimeClassInfoES2_S3_LN6AnyObj15allocation_typeE2EL8MEMFLAGS13EXadL_Z29DumpTimeSharedClassTable_hashIS1_EjRKPT_EEXadL_Z16primitive_equalsIS2_EbRKS9_SF_EEE3getERKS2_.exit.thread

_ZNK21ResourceHashtableBaseI29FixedResourceHashtableStorageILj15889EP13InstanceKlass17DumpTimeClassInfoES2_S3_LN6AnyObj15allocation_typeE2EL8MEMFLAGS13EXadL_Z29DumpTimeSharedClassTable_hashIS1_EjRKPT_EEXadL_Z16primitive_equalsIS2_EbRKS9_SF_EEE3getERKS2_.exit.thread: ; preds = %29, %_Z29DumpTimeSharedClassTable_hashI13InstanceKlassEjRKPT_.exit.i, %32
  ret void
}